(dp0
S'cheetos'
p1
I36
sS'all'
p2
I259
sS'code'
p3
I316
sS'orangina'
p4
I723
sS'entenmanns'
p5
I726
sS'izze'
p6
I798
sS'ale'
p7
I358
sS'yellow'
p8
I298
sS'fuego'
p9
I850
sS'olive'
p10
I751
sS'skin'
p11
I94
sS'go'
p12
I820
sS'krispie'
p13
I527
sS'cakesters'
p14
I595
sS'milk'
p15
I109
sS'grape'
p16
I16
sS'buddy'
p17
I700
sS'zone'
p18
I799
sS'peanut'
p19
I118
sS'poore'
p20
I501
sS'winterfresh'
p21
I431
sS'sparkling'
p22
I506
sS'to'
p23
I819
sS'granola'
p24
I305
sS'melon'
p25
I593
sS'180snackspistaciocrunch'
p26
I860
sS'barcel'
p27
I848
sS'supreme'
p28
I696
sS'nibblers'
p29
I79
sS'brown'
p30
I191
sS'sunchip'
p31
I483
sS'g2'
p32
I302
sS'very'
p33
I264
sS'trident'
p34
I620
sS'frapp'
p35
I466
sS'brownie'
p36
I304
sS'wavy'
p37
I360
sS'jack'
p38
I346
sS'honbbq'
p39
I315
sS'fam'
p40
I181
sS'appcran'
p41
I624
sS'blast'
p42
I605
sS'special'
p43
I741
sS'cool'
p44
I43
sS'riceworks'
p45
I671
sS'gf'
p46
I793
sS'8oz'
p47
I683
sS'gum'
p48
I2
sS'pea'
p49
I601
sS'large'
p50
I254
sS'sand'
p51
I202
sS'rasberry'
p52
I846
sS'warheads'
p53
I246
sS'pork'
p54
I408
sS'booty'
p55
I447
sS'rolo'
p56
I801
sS'tea'
p57
I426
sS'almond'
p58
I99
sS'quakes'
p59
I530
sS'quaker'
p60
I515
sS'chex'
p61
I340
sS'breakers'
p62
I216
sS'zero'
p63
I17
sS'lizzard'
p64
I591
sS'dried'
p65
I361
sS'perfect'
p66
I800
sS'dolce'
p67
I640
sS'tostitos'
p68
I428
sS'planters'
p69
I377
sS'jarritos'
p70
I416
sS'blue'
p71
I266
sS'donut'
p72
I295
sS'15oz'
p73
I590
sS'sangria'
p74
I856
sS'crush'
p75
I619
sS'payday'
p76
I117
sS'applesauce'
p77
I818
sS'cheez-it'
p78
I81
sS'vickies'
p79
I666
sS'mints'
p80
I392
sS'thin'
p81
I78
sS'nacho'
p82
I40
sS'crunch'
p83
I91
sS'full'
p84
I507
sS'cookies'
p85
I437
sS'hotspcy'
p86
I607
sS'sweetart'
p87
I354
sS'punch'
p88
I262
sS'french'
p89
I60
sS'lemonlime'
p90
I300
sS'water'
p91
I34
sS'gm'
p92
I843
sS'schwepps'
p93
I357
sS'non-vending'
p94
I281
sS'goldfish'
p95
I400
sS'toblerone'
p96
I459
sS'100'
p97
I148
sS'smartwater'
p98
I738
sS'sugr'
p99
I192
sS'box'
p100
I646
sS'vinegar'
p101
I56
sS'kids'
p102
I272
sS'bites'
p103
I578
sS'strudel'
p104
I500
sS'mentos'
p105
I652
sS'cinnamon'
p106
I440
sS'milky'
p107
I124
sS'popcorn'
p108
I6
sS'california'
p109
I135
sS'golden'
p110
I430
sS'rubyred'
p111
I418
sS'apple'
p112
I247
sS'extra'
p113
I394
sS'straw'
p114
I318
sS'vin'
p115
I223
sS'glass'
p116
I471
sS'limon'
p117
I417
sS'fantastix'
p118
I650
sS'sanpelligrino'
p119
I722
sS'plentpak'
p120
I396
sS'lime'
p121
I261
sS'goetz'
p122
I546
sS'munchies'
p123
I343
sS'chd'
p124
I618
sS'hippie'
p125
I676
sS'iced'
p126
I239
sS'salted'
p127
I859
sS'donuts'
p128
I811
sS'maltvinegar'
p129
I452
sS'chz&bac'
p130
I95
sS'chexmix'
p131
I606
sS'ghiradelli'
p132
I397
sS'andy'
p133
I88
sS'debbie'
p134
I513
sS'crab'
p135
I68
sS'rasins'
p136
I402
sS'black'
p137
I682
sS'grahams'
p138
I406
sS'montjack'
p139
I698
sS'blueberry'
p140
I190
sS'snak-ens'
p141
I256
sS'foco'
p142
I709
sS'rasp'
p143
I234
sS'mr'
p144
I763
sS'musketeer'
p145
I137
sS'brisk'
p146
I433
sS'starburst'
p147
I133
sS'chocolate'
p148
I235
sS'1.0oz'
p149
I38
sS'oreo'
p150
I366
sS'popper'
p151
I796
sS'baby'
p152
I145
sS'mellow'
p153
I690
sS'bkpot'
p154
I448
sS'harvest'
p155
I413
sS'spearmint'
p156
I208
sS'kashi'
p157
I549
sS'ii'
p158
I5
sS'nekot'
p159
I559
sS'salad'
p160
I826
sS'cap'
p161
I596
sS'dew'
p162
I27
sS'pellet'
p163
I725
sS'mt'
p164
I26
sS'sour'
p165
I270
sS'can'
p166
I9
sS'cal'
p167
I479
sS'crackers'
p168
I170
sS'root'
p169
I454
sS'lifesavers'
p170
I218
sS'orignal'
p171
I744
sS'mangomadness'
p172
I285
sS'links'
p173
I370
sS'snacks'
p174
I531
sS'chip'
p175
I176
sS'slim'
p176
I166
sS'tootsie'
p177
I390
sS'pieces'
p178
I110
sS'honey'
p179
I240
sS'carrot'
p180
I279
sS'salty'
p181
I353
sS'o'
p182
I787
sS'tac'
p183
I622
sS'honest'
p184
I637
sS'protein'
p185
I743
sS'garden'
p186
I505
sS'pink'
p187
I333
sS'popchips'
p188
I657
sS'pure'
p189
I774
sS'hon'
p190
I602
sS'csd'
p191
I20
sS'5-hour'
p192
I689
sS'pinkgrapefruit'
p193
I715
sS'nuts'
p194
I424
sS'machine'
p195
I791
sS'quesadilla'
p196
I293
sS'hot'
p197
I85
sS'animal'
p198
I330
sS'browns'
p199
I543
sS'3.3oz'
p200
I755
sS'fudge'
p201
I177
sS'pizza'
p202
I250
sS'swedish'
p203
I745
sS'snaps'
p204
I225
sS'sandwich'
p205
I518
sS'shtbrd'
p206
I482
sS'farm'
p207
I399
sS'max'
p208
I694
sS'use'
p209
I511
sS'c&c'
p210
I519
sS'carefree'
p211
I217
sS'salsitas'
p212
I554
sS'mac'
p213
I853
sS'taco'
p214
I485
sS'salsa'
p215
I494
sS'dove'
p216
I552
sS'w/almonds'
p217
I389
sS'short'
p218
I328
sS'natural'
p219
I587
sS'doritos'
p220
I39
sS'belles'
p221
I691
sS'ss'
p222
I80
sS'1.75oz'
p223
I42
sS'kiwistraw'
p224
I567
sS'bakery'
p225
I612
sS'mango'
p226
I662
sS'green'
p227
I425
sS'ultimate'
p228
I705
sS'sm'
p229
I560
sS'sc'
p230
I51
sS'1%'
p231
I487
sS'wing'
p232
I457
sS'snapple'
p233
I30
sS'1.5oz'
p234
I103
sS'lsc'
p235
I347
sS'dough'
p236
I837
sS'lss'
p237
I47
sS'cuts'
p238
I411
sS'cold'
p239
I204
sS'still'
p240
I228
sS'cola'
p241
I670
sS'demon'
p242
I509
sS'20'
p243
I857
sS'puffs'
p244
I834
sS'duplex'
p245
I229
sS'chips'
p246
I67
sS'jim'
p247
I167
sS'curls'
p248
I72
sS'late'
p249
I321
sS'maid'
p250
I434
sS'orangeade'
p251
I472
sS'fig'
p252
I141
sS'orange'
p253
I15
sS'peanuts'
p254
I311
sS'sauce'
p255
I779
sS'texas'
p256
I365
sS'belly'
p257
I686
sS'freshleys'
p258
I236
sS'concha'
p259
I788
sS'coffee'
p260
I303
sS'good'
p261
I516
sS'kelloggs'
p262
I701
sS'stix'
p263
I243
sS'tropicana'
p264
I28
sS'food'
p265
I205
sS'strawmelon'
p266
I29
sS'cupcake'
p267
I278
sS'break'
p268
I356
sS'starbucks'
p269
I465
sS'adriondack'
p270
I542
sS'minis'
p271
I187
sS'rasinets'
p272
I388
sS'sunmaid'
p273
I401
sS'ruth'
p274
I146
sS'meat'
p275
I475
sS'werthers'
p276
I765
sS'2.13oz'
p277
I781
sS'crunchy'
p278
I37
sS'fuze'
p279
I569
sS'1.9oz'
p280
I827
sS'muff'
p281
I268
sS'bursts'
p282
I581
sS'blackblue'
p283
I721
sS'stixs'
p284
I420
sS'roast'
p285
I378
sS'turtle'
p286
I341
sS'lovers'
p287
I754
sS'takis'
p288
I849
sS'pirates'
p289
I446
sS'strawbry'
p290
I486
sS's&v'
p291
I493
sS'energy'
p292
I470
sS'kane'
p293
I310
sS'skins'
p294
I564
sS'pistachios'
p295
I825
sS'stauffers'
p296
I768
sS'grapepeach'
p297
I589
sS'mamba'
p298
I770
sS'loops'
p299
I758
sS'smores'
p300
I415
sS'gobstoppers'
p301
I163
sS'oats&honey'
p302
I339
sS'canada'
p303
I782
sS'pom/blue/pistachio'
p304
I835
sS'cups'
p305
I729
sS'cranap'
p306
I439
sS'jolly'
p307
I312
sS'may'
p308
I585
sS'rf'
p309
I342
sS'sc&o'
p310
I70
sS'health'
p311
I632
sS'7'
p312
I287
sS'heavenly'
p313
I842
sS'reg'
p314
I64
sS'red'
p315
I212
sS'arizona'
p316
I536
sS'monster'
p317
I625
sS'2.0oz'
p318
I733
sS'free'
p319
I680
sS'funyuns'
p320
I63
sS'salami'
p321
I656
sS'cookie'
p322
I1
sS'york'
p323
I767
sS'latte'
p324
I806
sS'4oz'
p325
I851
sS'rinds'
p326
I409
sS'thins'
p327
I363
sS'breathsavers'
p328
I651
sS'gobstopper'
p329
I164
sS'raisin'
p330
I184
sS'cranberry'
p331
I521
sS'stride'
p332
I573
sS'pepperoni'
p333
I724
sS'soda'
p334
I374
sS'a&w'
p335
I373
sS'austin'
p336
I155
sS'think'
p337
I858
sS'nutrition'
p338
I631
sS'smokehouse'
p339
I617
sS'cheese'
p340
I41
sS'15.2oz'
p341
I362
sS'nestea'
p342
I12
sS'jalep'
p343
I599
sS'veggie'
p344
I421
sS'one'
p345
I644
sS'twinkie'
p346
I244
sS'illy'
p347
I805
sS'ring'
p348
I499
sS'mist'
p349
I525
sS'miss'
p350
I665
sS'mojo'
p351
I852
sS'size'
p352
I387
sS'little'
p353
I512
sS'whatchamacallit'
p354
I111
sS'bears'
p355
I539
sS'revive'
p356
I663
sS'appl'
p357
I562
sS'bitz'
p358
I414
sS'trails'
p359
I654
sS'goodbar'
p360
I764
sS'white'
p361
I83
sS'twister'
p362
I350
sS'bits'
p363
I196
sS'banana'
p364
I570
sS'mini'
p365
I267
sS'danish'
p366
I290
sS'gummy'
p367
I538
sS'prtz'
p368
I336
sS'kiwistrawberry'
p369
I286
sS'parm'
p370
I490
sS'strwyogurt'
p371
I684
sS'1.4oz'
p372
I821
sS'gummi'
p373
I580
sS'raisinets'
p374
I379
sS'cereal'
p375
I306
sS'baja'
p376
I134
sS'july'
p377
I677
sS'sunchips'
p378
I59
sS'king'
p379
I386
sS'kind'
p380
I762
sS'throttle'
p381
I508
sS'16'
p382
I282
sS'syrup'
p383
I277
sS'powerc'
p384
I551
sS'ched'
p385
I58
sS'multigrain'
p386
I780
sS'stk'
p387
I565
sS'dentyne'
p388
I613
sS'rehab'
p389
I761
sS'doone'
p390
I144
sS'creme'
p391
I201
sS'motzerella'
p392
I382
sS'9.5oz'
p393
I808
sS'wrigley'
p394
I126
sS'kars'
p395
I178
sS'coconut'
p396
I710
sS'half&half'
p397
I718
sS'tarts'
p398
I189
sS'sw'
p399
I435
sS'half'
p400
I838
sS'carrott'
p401
I292
sS'juicy'
p402
I210
sS'ginger'
p403
I224
sS'clif'
p404
I688
sS'juice'
p405
I568
sS'pastry'
p406
I203
sS'tylenol'
p407
I320
sS'mint'
p408
I3
sS'marathon'
p409
I423
sS'mountain'
p410
I604
sS'chese'
p411
I778
sS'skittles'
p412
I127
sS'-'
p413
I274
sS'switch'
p414
I681
sS'zoo'
p415
I169
sS'mix'
p416
I180
sS'take'
p417
I445
sS'musketeers'
p418
I497
sS'snowballs'
p419
I695
sS'lipton'
p420
I432
sS'pringles'
p421
I249
sS'fresca'
p422
I22
sS'pretzels'
p423
I76
sS'fstg'
p424
I750
sS'gardettos'
p425
I255
sS'react'
p426
I649
sS'colada'
p427
I571
sS'assault'
p428
I854
sS'regular'
p429
I66
sS'kat'
p430
I98
sS'3oz'
p431
I207
sS'cinnamint'
p432
I803
sS'ritz'
p433
I195
sS'kc'
p434
I53
sS'treats'
p435
I528
sS'yogurt'
p436
I752
sS'jumbo'
p437
I794
sS'mrs'
p438
I584
sS'medely'
p439
I588
sS'pineapple'
p440
I383
sS'skinny'
p441
I734
sS'sf'
p442
I653
sS'salt'
p443
I54
sS'breadsticks'
p444
I840
sS'lorna'
p445
I143
sS'11.5oz'
p446
I227
sS'gold'
p447
I335
sS'yogavive'
p448
I678
sS'grandmas'
p449
I174
sS'naturals'
p450
I675
sS'certs'
p451
I393
sS'mazing'
p452
I438
sS'earth'
p453
I748
sS'ruger'
p454
I257
sS'trop'
p455
I351
sS'fine'
p456
I384
sS'toast'
p457
I498
sS'snack'
p458
I71
sS'mug'
p459
I453
sS'jal'
p460
I847
sS'fritos'
p461
I45
sS'frapiccino'
p462
I474
sS'snickers'
p463
I123
sS'fanta'
p464
I14
sS'sierra'
p465
I524
sS'chipotle'
p466
I550
sS'rice'
p467
I526
sS'seagrams'
p468
I841
sS'carolina'
p469
I69
sS'boulder'
p470
I451
sS'do'
p471
I510
sS'sweetie'
p472
I789
sS'caribu'
p473
I532
sS'fiber'
p474
I643
sS'sunny'
p475
I544
sS'bear'
p476
I647
sS'locarb'
p477
I638
sS'wonka'
p478
I159
sS'minatures'
p479
I804
sS'dr'
p480
I24
sS'ds'
p481
I730
sS'gem'
p482
I810
sS'prime'
p483
I371
sS'bar'
p484
I119
sS'carborite'
p485
I436
sS'20oz'
p486
I18
sS'pretzel'
p487
I77
sS'patch'
p488
I271
sS'naked'
p489
I790
sS'bag'
p490
I598
sS'caramel'
p491
I139
sS'filled'
p492
I832
sS'double'
p493
I503
sS'powerade'
p494
I582
sS'grab'
p495
I368
sS'tortilla'
p496
I555
sS'anglefood'
p497
I706
sS'bars'
p498
I307
sS'fuel'
p499
I592
sS'rockstar'
p500
I477
sS'w/'
p501
I537
sS'10oz'
p502
I265
sS'nut'
p503
I404
sS'lemonade'
p504
I31
sS'nesquik'
p505
I461
sS'freeze'
p506
I785
sS'reeces'
p507
I728
sS'sea'
p508
I667
sS'cheerios'
p509
I403
sS'sport'
p510
I260
sS'vita'
p511
I815
sS'best'
p512
I655
sS'bugles'
p513
I616
sS'$1.00'
p514
I197
sS'patties'
p515
I114
sS'tamales'
p516
I158
sS'strawberry'
p517
I116
sS'strawbanana'
p518
I712
sS'nutri-grain'
p519
I324
sS'nutella'
p520
I839
sS'3'
p521
I136
sS'chewy'
p522
I161
sS'mandarin'
p523
I574
sS'chews'
p524
I165
sS'dirty'
p525
I753
sS'sunkist'
p526
I533
sS'motts'
p527
I817
sS'nature'
p528
I337
sS'joy'
p529
I106
sS'vitamin'
p530
I563
sS'1oz'
p531
I449
sS'utz'
p532
I65
sS'pepsi'
p533
I23
sS'ahoy'
p534
I198
sS'doublemint'
p535
I209
sS'welchs'
p536
I376
sS'cow'
p537
I735
sS'country'
p538
I231
sS'jelly'
p539
I685
sS'glzhonbuns'
p540
I289
sS'berry'
p541
I131
sS'buzz'
p542
I829
sS'pita'
p543
I442
sS'vault'
p544
I481
sS'shortcake'
p545
I703
sS'whole'
p546
I747
sS'cakes'
p547
I237
sS'twix'
p548
I138
sS'key'
p549
I658
sS'non-core'
p550
I251
sS'cb'
p551
I323
sS'pot'
p552
I566
sS'cf'
p553
I13
sS'pop'
p554
I188
sS'belvita'
p555
I813
sS'vend'
p556
I727
sS'pom'
p557
I429
sS'krunchers'
p558
I627
sS'crisps'
p559
I673
sS'jays'
p560
I626
sS'orig'
p561
I46
sS'handisnacks'
p562
I345
sS'beef'
p563
I759
sS'2%'
p564
I504
sS'tgif'
p565
I93
sS'af'
p566
I463
sS'tiny'
p567
I707
sS'tropical'
p568
I132
sS'beer'
p569
I455
sS'ade'
p570
I660
sS'goobers'
p571
I645
sS'mars'
p572
I120
sS'rancher'
p573
I313
sS'bbq'
p574
I49
sS'gatorade'
p575
I299
sS'dry'
p576
I783
sS'mike'
p577
I86
sS'goldencheese'
p578
I375
sS'sprite'
p579
I11
sS'nabisco'
p580
I329
sS'frito'
p581
I48
sS'xxx'
p582
I535
sS'c'
p583
I630
sS'hershey'
p584
I96
sS'picante'
p585
I802
sS'bull'
p586
I458
sS'chili'
p587
I480
sS'chill'
p588
I615
sS'perrier'
p589
I713
sS'sobe'
p590
I469
sS'jalepeno'
p591
I476
sS'combos'
p592
I308
sS'crumb'
p593
I296
sS'hostess'
p594
I238
sS'plain'
p595
I122
sS'vanilla'
p596
I369
sS'cracker'
p597
I151
sS'batch'
p598
I444
sS'arnold'
p599
I716
sS'n'
p600
I55
sS'1.83oz'
p601
I864
sS'wild'
p602
I130
sS'balance'
p603
I836
sS'shake'
p604
I824
sS'k'
p605
I742
sS'pound'
p606
I740
sS'dippin'
p607
I828
sS'nutter'
p608
I199
sS'bros'
p609
I502
sS'shamrock'
p610
I107
sS'seltzer'
p611
I557
sS'cans'
p612
I21
sS'in'
p613
I276
sS'ic'
p614
I609
sS'rib'
p615
I372
sS'cinn'
p616
I193
sS'happy'
p617
I669
sS'bottles'
p618
I623
sS'reeses'
p619
I104
sS'fruit20'
p620
I317
sS'generic'
p621
I291
sS'citrus'
p622
I473
sS'butterfinger'
p623
I147
sS'grand'
p624
I149
sS'lite'
p625
I206
sS'party'
p626
I331
sS'foxs'
p627
I222
sS'ohs'
p628
I157
sS'dasani'
p629
I35
sS'herrs'
p630
I732
sS'ikes'
p631
I87
sS'arctic'
p632
I614
sS'drink'
p633
I253
sS'munch'
p634
I92
sS'm&m'
p635
I121
sS'rain'
p636
I634
sS'kit'
p637
I97
sS'delight'
p638
I545
sS'pizzarias'
p639
I608
sS'180snacksblupom'
p640
I861
sS'fruit'
p641
I173
sS'garlic'
p642
I491
sS'caramello'
p643
I611
sS'v8'
p644
I226
sS'spree'
p645
I162
sS'totally'
p646
I845
sS'butter'
p647
I140
sS'orangtang'
p648
I635
sS'ranch'
p649
I44
sS'kellogg'
p650
I757
sS'knotts'
p651
I326
sS'altoids'
p652
I572
sS'bottle'
p653
I19
sS'advil'
p654
I642
sS'swiss'
p655
I514
sS'dreamy'
p656
I736
sS'muscle'
p657
I731
sS'stacys'
p658
I441
sS'0.5l'
p659
I714
sS'mills'
p660
I863
sS'cinnaburst'
p661
I213
sS'cheddar'
p662
I84
sS'loaf'
p663
I359
sS'aroma'
p664
I639
sS'voltage'
p665
I583
sS'amp'
p666
I628
sS'flavor'
p667
I221
sS'gems'
p668
I297
sS'cut'
p669
I273
sS'garsalsa'
p670
I484
sS'cup'
p671
I102
sS'cherry'
p672
I194
sS'elfin'
p673
I185
sS'grapefruit'
p674
I419
sS'japepeno'
p675
I795
sS'sweet'
p676
I352
sS'twizzler'
p677
I115
sS'barts'
p678
I664
sS'citron'
p679
I720
sS'mystery'
p680
I575
sS'mineragua'
p681
I579
sS'sc&onion'
p682
I600
sS'.75oz'
p683
I381
sS'haribo'
p684
I668
sS'capt'
p685
I603
sS'big'
p686
I211
sS'capp'
p687
I89
sS'7stk'
p688
I214
sS'nilla'
p689
I594
sS'dark'
p690
I553
sS'fusion'
p691
I719
sS'3pk'
p692
I294
sS'five'
p693
I633
sS'parmgarlic'
p694
I692
sS'mays'
p695
I704
sS'snickerdoodle'
p696
I171
sS'bit'
p697
I786
sS'sandwichs'
p698
I230
sS'donettes'
p699
I797
sS'zingers'
p700
I233
sS'crisp'
p701
I422
sS'onion'
p702
I52
sS'candy'
p703
I0
sS'jumex'
p704
I711
sS'night'
p705
I322
sS'amos'
p706
I182
sS'claw'
p707
I648
sS'rich'
p708
I175
sS'soft'
p709
I443
sS'sourdough'
p710
I252
sS'fruitpunch'
p711
I301
sS'wintergreen'
p712
I219
sS'old'
p713
I74
sS'clusters'
p714
I496
sS'propel'
p715
I541
sS'dole'
p716
I462
sS'daisy'
p717
I739
sS'almonds'
p718
I816
sS'mighty'
p719
I792
sS'home'
p720
I679
sS'cran'
p721
I661
sS'rasplime'
p722
I558
sS'kiwi'
p723
I478
sS'humor'
p724
I517
sS'jalapeno'
p725
I407
sS'munchos'
p726
I62
sS'kettle'
p727
I412
sS'yoohoo'
p728
I349
sS'ice'
p729
I215
sS'ruffles'
p730
I57
sS'peg'
p731
I597
sS'mangomelon'
p732
I523
sS'nuggets'
p733
I769
sS'milkfat'
p734
I488
sS'pepper'
p735
I25
sS'wheat'
p736
I154
sS'zest'
p737
I823
sS'dunkin'
p738
I242
sS'corn'
p739
I749
sS'palmer'
p740
I717
sS'3.5oz'
p741
I385
sS'nathans'
p742
I737
sS'riesen'
p743
I771
sS'raspberry'
p744
I327
sS'nipchee'
p745
I760
sS'smartfood'
p746
I61
sS'on'
p747
I153
sS'choc'
p748
I108
sS'hard'
p749
I766
sS'2.25oz'
p750
I348
sS'mondelez'
p751
I269
sS'5oz'
p752
I659
sS'vitwater'
p753
I534
sS'oatmeal'
p754
I183
sS'oz'
p755
I283
sS'act'
p756
I4
sS'mixed'
p757
I172
sS'barqs'
p758
I529
sS'rasin'
p759
I697
sS'peak'
p760
I855
sS'resse'
p761
I100
sS'mocha'
p762
I468
sS'luna'
p763
I822
sS'newtons'
p764
I142
sS'runts'
p765
I160
sS'cloverhill'
p766
I364
sS'rounds'
p767
I556
sS'sabra'
p768
I777
sS'pb'
p769
I101
sS'crangrape'
p770
I427
sS'van'
p771
I467
sS'cinnabon'
p772
I702
sS'odwalla'
p773
I699
sS'snyder'
p774
I73
sS'genmax'
p775
I495
sS'fast'
p776
I355
sS'fudgsicle'
p777
I520
sS'14oz'
p778
I489
sS'anderson'
p779
I831
sS'splash'
p780
I464
sS'way'
p781
I125
sS'3.7oz'
p782
I844
sS'valley'
p783
I338
sS'bubble'
p784
I395
sS'fish'
p785
I746
sS'vienna'
p786
I577
sS'spicy'
p787
I168
sS'atkins'
p788
I756
sS'hawaiian'
p789
I367
sS'coke'
p790
I7
sS'sundry'
p791
I263
sS'aquafina'
p792
I325
sS'genisoy'
p793
I672
sS'bun'
p794
I241
sS'acai'
p795
I636
sS'pelligrino'
p796
I830
sS'cottage'
p797
I410
sS'12oz'
p798
I8
sS'kraft'
p799
I344
sS'junior'
p800
I391
sS'wise'
p801
I405
sS'ho-hos'
p802
I245
sS'potato'
p803
I674
sS'fries'
p804
I90
sS'up'
p805
I288
sS'peppermint'
p806
I113
sS'pepperidge'
p807
I398
sS'nestle'
p808
I33
sS'lays'
p809
I50
sS'roasted'
p810
I812
sS'cake'
p811
I280
sS'cashew'
p812
I610
sS'1.69oz'
p813
I833
sS'nerds'
p814
I309
sS'16oz'
p815
I32
sS'trio'
p816
I112
sS'sticks'
p817
I105
sS'cheez-its'
p818
I82
sS'kisses'
p819
I772
sS'pie'
p820
I460
sS'general'
p821
I862
sS'twist'
p822
I314
sS'tasty'
p823
I773
sS'trix'
p824
I809
sS'muffins'
p825
I693
sS'cranblue'
p826
I586
sS'cream'
p827
I332
sS'lemon'
p828
I156
sS'keebler'
p829
I186
sS'peach'
p830
I284
sS'tyme'
p831
I75
sS'glacier'
p832
I784
sS'18.5oz'
p833
I776
sS'assorted'
p834
I275
sS'cashews'
p835
I814
sS'5'
p836
I220
sS'rold'
p837
I334
sS'swirl'
p838
I641
sS'roll'
p839
I248
sS'life'
p840
I522
sS'tic'
p841
I621
sS'lance'
p842
I150
sS'polar'
p843
I576
sS'mustard'
p844
I492
sS'crinkle'
p845
I687
sS'diet'
p846
I10
sS'terra'
p847
I450
sS'toasty'
p848
I152
sS'2oz'
p849
I129
sS'snackwell'
p850
I200
sS'carmel'
p851
I547
sS'cremes'
p852
I548
sS'pouch'
p853
I540
sS'leaf'
p854
I775
sS'wafer'
p855
I258
sS'trail'
p856
I179
sS'buffalo'
p857
I456
sS'orbit'
p858
I561
sS'daily'
p859
I629
sS'original'
p860
I128
sS'macchiato'
p861
I807
sS'time'
p862
I232
sS'baked'
p863
I380
sS'mmaid'
p864
I319
sS'oceanspray'
p865
I708
s.